; Function Attrs: mustprogress nofree norecurse nosync nounwind sspstrong willreturn memory(read, inaccessiblemem: none) uwtable
define hidden range(i32 0, 2) i32 @rb_is_const_sym(i64 noundef %0) local_unnamed_addr #7 {
  %2 = and i64 %0, 255
  %3 = icmp eq i64 %2, 12
  br i1 %3, label %4, label %7

4:                                                ; preds = %1
  %5 = lshr i64 %0, 8
  %6 = icmp ult i64 %0, 43776
  br i1 %6, label %sym_type.exit, label %11

7:                                                ; preds = %1
  %8 = inttoptr i64 %0 to ptr
  %9 = getelementptr inbounds nuw i8, ptr %8, i64 32
  %10 = load i64, ptr %9, align 8, !tbaa !31
  br label %11

11:                                               ; preds = %7, %4
  %.0.i = phi i64 [ %5, %4 ], [ %10, %7 ]
  %12 = and i64 %.0.i, 14
  %13 = icmp eq i64 %12, 10
  %14 = zext i1 %13 to i32
  br label %sym_type.exit

sym_type.exit:                                    ; preds = %4, %11
  %.06.i = phi i32 [ %14, %11 ], [ 0, %4 ]
  ret i32 %.06.i
}